target datalayout = "e-m:e-p270:32:32-p271:32:32-p272:64:64-i64:64-i128:128-f80:128-n8:16:32:64-S128"
target triple = "x86_64-pc-linux-gnu"

%struct.JSValue = type { %union.JSValueUnion, i64 }
%union.JSValueUnion = type { double }
%struct.JSRefCountHeader = type { i32 }

@.str.5 = private unnamed_addr constant [4 x i8] c".so\00", align 1
@.str.6 = private unnamed_addr constant [36 x i8] c"could not load module filename '%s'\00", align 1
@.str.18 = private unnamed_addr constant [3 x i8] c"./\00", align 1
@.str.19 = private unnamed_addr constant [54 x i8] c"could not load module filename '%s' as shared library\00", align 1
@.str.20 = private unnamed_addr constant [15 x i8] c"js_init_module\00", align 1
@.str.21 = private unnamed_addr constant [62 x i8] c"could not load module filename '%s': js_init_module not found\00", align 1
@.str.22 = private unnamed_addr constant [58 x i8] c"could not load module filename '%s': initialization error\00", align 1

; Function Attrs: nounwind uwtable
define internal void @JS_FreeValue(ptr noundef %0, i64 %1, i64 %2) #0 {
  %4 = alloca %struct.JSValue, align 8
  %5 = alloca ptr, align 8
  %6 = alloca ptr, align 8
  %7 = getelementptr inbounds { i64, i64 }, ptr %4, i32 0, i32 0
  store i64 %1, ptr %7, align 8
  %8 = getelementptr inbounds { i64, i64 }, ptr %4, i32 0, i32 1
  store i64 %2, ptr %8, align 8
  store ptr %0, ptr %5, align 8
  %9 = getelementptr inbounds %struct.JSValue, ptr %4, i32 0, i32 1
  %10 = load i64, ptr %9, align 8
  %11 = trunc i64 %10 to i32
  %12 = icmp uge i32 %11, -11
  br i1 %12, label %13, label %28

13:                                               ; preds = %3
  %14 = getelementptr inbounds %struct.JSValue, ptr %4, i32 0, i32 0
  %15 = load ptr, ptr %14, align 8
  store ptr %15, ptr %6, align 8
  %16 = load ptr, ptr %6, align 8
  %17 = getelementptr inbounds %struct.JSRefCountHeader, ptr %16, i32 0, i32 0
  %18 = load i32, ptr %17, align 4
  %19 = add i32 %18, -1
  store i32 %19, ptr %17, align 4
  %20 = icmp sle i32 %19, 0
  br i1 %20, label %21, label %27

21:                                               ; preds = %13
  %22 = load ptr, ptr %5, align 8
  %23 = getelementptr inbounds { i64, i64 }, ptr %4, i32 0, i32 0
  %24 = load i64, ptr %23, align 8
  %25 = getelementptr inbounds { i64, i64 }, ptr %4, i32 0, i32 1
  %26 = load i64, ptr %25, align 8
  call void @__JS_FreeValue(ptr noundef %22, i64 %24, i64 %26)
  br label %27

27:                                               ; preds = %21, %13
  br label %28

28:                                               ; preds = %27, %3
  ret void
}

; Function Attrs: nounwind uwtable
define internal i32 @JS_IsException(i64 %0, i64 %1) #0 {
  %3 = alloca %struct.JSValue, align 8
  %4 = getelementptr inbounds { i64, i64 }, ptr %3, i32 0, i32 0
  store i64 %0, ptr %4, align 8
  %5 = getelementptr inbounds { i64, i64 }, ptr %3, i32 0, i32 1
  store i64 %1, ptr %5, align 8
  %6 = getelementptr inbounds %struct.JSValue, ptr %3, i32 0, i32 1
  %7 = load i64, ptr %6, align 8
  %8 = trunc i64 %7 to i32
  %9 = icmp eq i32 %8, 6
  %10 = xor i1 %9, true
  %11 = xor i1 %10, true
  %12 = zext i1 %11 to i32
  %13 = sext i32 %12 to i64
  %14 = trunc i64 %13 to i32
  ret i32 %14
}

; Function Attrs: nounwind uwtable
define internal ptr @js_module_loader_so(ptr noundef %0, ptr noundef %1) #0 {
  %3 = alloca ptr, align 8
  %4 = alloca ptr, align 8
  %5 = alloca ptr, align 8
  %6 = alloca ptr, align 8
  %7 = alloca ptr, align 8
  %8 = alloca ptr, align 8
  %9 = alloca ptr, align 8
  %10 = alloca %struct.JSValue, align 8
  %11 = alloca %struct.JSValue, align 8
  %12 = alloca %struct.JSValue, align 8
  store ptr %0, ptr %4, align 8
  store ptr %1, ptr %5, align 8
  %13 = load ptr, ptr %5, align 8
  %14 = call ptr @strchr(ptr noundef %13, i32 noundef 47) #13
  %15 = icmp ne ptr %14, null
  br i1 %15, label %33, label %16

16:                                               ; preds = %2
  %17 = load ptr, ptr %4, align 8
  %18 = load ptr, ptr %5, align 8
  %19 = call i64 @strlen(ptr noundef %18) #13
  %20 = add i64 %19, 2
  %21 = add i64 %20, 1
  %22 = call ptr @js_malloc(ptr noundef %17, i64 noundef %21)
  store ptr %22, ptr %9, align 8
  %23 = load ptr, ptr %9, align 8
  %24 = icmp ne ptr %23, null
  br i1 %24, label %26, label %25

25:                                               ; preds = %16
  store ptr null, ptr %3, align 8
  br label %92

26:                                               ; preds = %16
  %27 = load ptr, ptr %9, align 8
  %28 = call ptr @strcpy(ptr noundef %27, ptr noundef @.str.18) #12
  %29 = load ptr, ptr %9, align 8
  %30 = getelementptr i8, ptr %29, i64 2
  %31 = load ptr, ptr %5, align 8
  %32 = call ptr @strcpy(ptr noundef %30, ptr noundef %31) #12
  br label %35

33:                                               ; preds = %2
  %34 = load ptr, ptr %5, align 8
  store ptr %34, ptr %9, align 8
  br label %35

35:                                               ; preds = %33, %26
  %36 = load ptr, ptr %9, align 8
  %37 = call ptr @dlopen(ptr noundef %36, i32 noundef 2) #12
  store ptr %37, ptr %7, align 8
  %38 = load ptr, ptr %9, align 8
  %39 = load ptr, ptr %5, align 8
  %40 = icmp ne ptr %38, %39
  br i1 %40, label %41, label %44

41:                                               ; preds = %35
  %42 = load ptr, ptr %4, align 8
  %43 = load ptr, ptr %9, align 8
  call void @js_free(ptr noundef %42, ptr noundef %43)
  br label %44

44:                                               ; preds = %41, %35
  %45 = load ptr, ptr %7, align 8
  %46 = icmp ne ptr %45, null
  br i1 %46, label %55, label %47

47:                                               ; preds = %44
  %48 = load ptr, ptr %4, align 8
  %49 = load ptr, ptr %5, align 8
  %50 = call { i64, i64 } (ptr, ptr, ...) @JS_ThrowReferenceError(ptr noundef %48, ptr noundef @.str.19, ptr noundef %49)
  %51 = getelementptr inbounds { i64, i64 }, ptr %10, i32 0, i32 0
  %52 = extractvalue { i64, i64 } %50, 0
  store i64 %52, ptr %51, align 8
  %53 = getelementptr inbounds { i64, i64 }, ptr %10, i32 0, i32 1
  %54 = extractvalue { i64, i64 } %50, 1
  store i64 %54, ptr %53, align 8
  br label %83

55:                                               ; preds = %44
  %56 = load ptr, ptr %7, align 8
  %57 = call ptr @dlsym(ptr noundef %56, ptr noundef @.str.20) #12
  store ptr %57, ptr %8, align 8
  %58 = load ptr, ptr %8, align 8
  %59 = icmp ne ptr %58, null
  br i1 %59, label %68, label %60

60:                                               ; preds = %55
  %61 = load ptr, ptr %4, align 8
  %62 = load ptr, ptr %5, align 8
  %63 = call { i64, i64 } (ptr, ptr, ...) @JS_ThrowReferenceError(ptr noundef %61, ptr noundef @.str.21, ptr noundef %62)
  %64 = getelementptr inbounds { i64, i64 }, ptr %11, i32 0, i32 0
  %65 = extractvalue { i64, i64 } %63, 0
  store i64 %65, ptr %64, align 8
  %66 = getelementptr inbounds { i64, i64 }, ptr %11, i32 0, i32 1
  %67 = extractvalue { i64, i64 } %63, 1
  store i64 %67, ptr %66, align 8
  br label %83

68:                                               ; preds = %55
  %69 = load ptr, ptr %8, align 8
  %70 = load ptr, ptr %4, align 8
  %71 = load ptr, ptr %5, align 8
  %72 = call ptr %69(ptr noundef %70, ptr noundef %71)
  store ptr %72, ptr %6, align 8
  %73 = load ptr, ptr %6, align 8
  %74 = icmp ne ptr %73, null
  br i1 %74, label %90, label %75

75:                                               ; preds = %68
  %76 = load ptr, ptr %4, align 8
  %77 = load ptr, ptr %5, align 8
  %78 = call { i64, i64 } (ptr, ptr, ...) @JS_ThrowReferenceError(ptr noundef %76, ptr noundef @.str.22, ptr noundef %77)
  %79 = getelementptr inbounds { i64, i64 }, ptr %12, i32 0, i32 0
  %80 = extractvalue { i64, i64 } %78, 0
  store i64 %80, ptr %79, align 8
  %81 = getelementptr inbounds { i64, i64 }, ptr %12, i32 0, i32 1
  %82 = extractvalue { i64, i64 } %78, 1
  store i64 %82, ptr %81, align 8
  br label %83

83:                                               ; preds = %75, %60, %47
  %84 = load ptr, ptr %7, align 8
  %85 = icmp ne ptr %84, null
  br i1 %85, label %86, label %89

86:                                               ; preds = %83
  %87 = load ptr, ptr %7, align 8
  %88 = call i32 @dlclose(ptr noundef %87) #12
  br label %89

89:                                               ; preds = %86, %83
  store ptr null, ptr %3, align 8
  br label %92

90:                                               ; preds = %68
  %91 = load ptr, ptr %6, align 8
  store ptr %91, ptr %3, align 8
  br label %92

92:                                               ; preds = %90, %89, %25
  %93 = load ptr, ptr %3, align 8
  ret ptr %93
}

; Function Attrs: nounwind uwtable
define dso_local ptr @js_module_loader(ptr noundef %0, ptr noundef %1, ptr noundef %2) #0 {
  %4 = alloca ptr, align 8
  %5 = alloca ptr, align 8
  %6 = alloca ptr, align 8
  %7 = alloca ptr, align 8
  %8 = alloca ptr, align 8
  %9 = alloca i64, align 8
  %10 = alloca ptr, align 8
  %11 = alloca %struct.JSValue, align 8
  %12 = alloca %struct.JSValue, align 8
  %13 = alloca %struct.JSValue, align 8
  store ptr %0, ptr %5, align 8
  store ptr %1, ptr %6, align 8
  store ptr %2, ptr %7, align 8
  %14 = load ptr, ptr %6, align 8
  %15 = call i32 @has_suffix(ptr noundef %14, ptr noundef @.str.5)
  %16 = icmp ne i32 %15, 0
  br i1 %16, label %17, label %21

17:                                               ; preds = %3
  %18 = load ptr, ptr %5, align 8
  %19 = load ptr, ptr %6, align 8
  %20 = call ptr @js_module_loader_so(ptr noundef %18, ptr noundef %19)
  store ptr %20, ptr %8, align 8
  br label %68

21:                                               ; preds = %3
  %22 = load ptr, ptr %5, align 8
  %23 = load ptr, ptr %6, align 8
  %24 = call ptr @js_load_file(ptr noundef %22, ptr noundef %9, ptr noundef %23)
  store ptr %24, ptr %10, align 8
  %25 = load ptr, ptr %10, align 8
  %26 = icmp ne ptr %25, null
  br i1 %26, label %35, label %27

27:                                               ; preds = %21
  %28 = load ptr, ptr %5, align 8
  %29 = load ptr, ptr %6, align 8
  %30 = call { i64, i64 } (ptr, ptr, ...) @JS_ThrowReferenceError(ptr noundef %28, ptr noundef @.str.6, ptr noundef %29)
  %31 = getelementptr inbounds { i64, i64 }, ptr %12, i32 0, i32 0
  %32 = extractvalue { i64, i64 } %30, 0
  store i64 %32, ptr %31, align 8
  %33 = getelementptr inbounds { i64, i64 }, ptr %12, i32 0, i32 1
  %34 = extractvalue { i64, i64 } %30, 1
  store i64 %34, ptr %33, align 8
  store ptr null, ptr %4, align 8
  br label %70

35:                                               ; preds = %21
  %36 = load ptr, ptr %5, align 8
  %37 = load ptr, ptr %10, align 8
  %38 = load i64, ptr %9, align 8
  %39 = load ptr, ptr %6, align 8
  %40 = call { i64, i64 } @JS_Eval(ptr noundef %36, ptr noundef %37, i64 noundef %38, ptr noundef %39, i32 noundef 33)
  %41 = getelementptr inbounds { i64, i64 }, ptr %13, i32 0, i32 0
  %42 = extractvalue { i64, i64 } %40, 0
  store i64 %42, ptr %41, align 8
  %43 = getelementptr inbounds { i64, i64 }, ptr %13, i32 0, i32 1
  %44 = extractvalue { i64, i64 } %40, 1
  store i64 %44, ptr %43, align 8
  call void @llvm.memcpy.p0.p0.i64(ptr align 8 %11, ptr align 8 %13, i64 16, i1 false)
  %45 = load ptr, ptr %5, align 8
  %46 = load ptr, ptr %10, align 8
  call void @js_free(ptr noundef %45, ptr noundef %46)
  %47 = getelementptr inbounds { i64, i64 }, ptr %11, i32 0, i32 0
  %48 = load i64, ptr %47, align 8
  %49 = getelementptr inbounds { i64, i64 }, ptr %11, i32 0, i32 1
  %50 = load i64, ptr %49, align 8
  %51 = call i32 @JS_IsException(i64 %48, i64 %50)
  %52 = icmp ne i32 %51, 0
  br i1 %52, label %53, label %54

53:                                               ; preds = %35
  store ptr null, ptr %4, align 8
  br label %70

54:                                               ; preds = %35
  %55 = load ptr, ptr %5, align 8
  %56 = getelementptr inbounds { i64, i64 }, ptr %11, i32 0, i32 0
  %57 = load i64, ptr %56, align 8
  %58 = getelementptr inbounds { i64, i64 }, ptr %11, i32 0, i32 1
  %59 = load i64, ptr %58, align 8
  %60 = call i32 @js_module_set_import_meta(ptr noundef %55, i64 %57, i64 %59, i32 noundef 1, i32 noundef 0)
  %61 = getelementptr inbounds %struct.JSValue, ptr %11, i32 0, i32 0
  %62 = load ptr, ptr %61, align 8
  store ptr %62, ptr %8, align 8
  %63 = load ptr, ptr %5, align 8
  %64 = getelementptr inbounds { i64, i64 }, ptr %11, i32 0, i32 0
  %65 = load i64, ptr %64, align 8
  %66 = getelementptr inbounds { i64, i64 }, ptr %11, i32 0, i32 1
  %67 = load i64, ptr %66, align 8
  call void @JS_FreeValue(ptr noundef %63, i64 %65, i64 %67)
  br label %68

68:                                               ; preds = %54, %17
  %69 = load ptr, ptr %8, align 8
  store ptr %69, ptr %4, align 8
  br label %70

70:                                               ; preds = %68, %53, %27
  %71 = load ptr, ptr %4, align 8
  ret ptr %71
}