; Function Attrs: nounwind uwtable
define dso_local ptr @js_module_loader(ptr noundef %0, ptr noundef %1, ptr nocapture readnone %2) #0 {
  %4 = alloca i64, align 8
  %5 = tail call i32 @has_suffix(ptr noundef %1, ptr noundef nonnull @.str.5) #29
  %.not = icmp eq i32 %5, 0
  br i1 %.not, label %29, label %6

6:                                                ; preds = %3
  %7 = tail call ptr @strchr(ptr noundef nonnull dereferenceable(1) %1, i32 noundef 47) #31
  %.not.i = icmp eq ptr %7, null
  br i1 %.not.i, label %9, label %.thread.i

.thread.i:                                        ; preds = %6
  %8 = tail call ptr @dlopen(ptr noundef %1, i32 noundef 2) #29
  br label %18

9:                                                ; preds = %6
  %10 = tail call i64 @strlen(ptr noundef nonnull dereferenceable(1) %1) #31
  %11 = add i64 %10, 3
  %12 = tail call ptr @js_malloc(ptr noundef %0, i64 noundef %11) #29
  %.not39.i = icmp eq ptr %12, null
  br i1 %.not39.i, label %js_module_loader_so.exit, label %13

13:                                               ; preds = %9
  tail call void @llvm.memcpy.p0.p0.i64(ptr noundef nonnull align 1 dereferenceable(3) %12, ptr noundef nonnull align 1 dereferenceable(3) @.str.18, i64 3, i1 false) #29
  %14 = getelementptr i8, ptr %12, i64 2
  %15 = tail call ptr @strcpy(ptr noundef nonnull dereferenceable(1) %14, ptr noundef nonnull dereferenceable(1) %1) #29
  %16 = tail call ptr @dlopen(ptr noundef nonnull %12, i32 noundef 2) #29
  %.not40.i = icmp eq ptr %12, %1
  br i1 %.not40.i, label %18, label %17

17:                                               ; preds = %13
  tail call void @js_free(ptr noundef %0, ptr noundef nonnull %12) #29
  br label %18

18:                                               ; preds = %17, %13, %.thread.i
  %19 = phi ptr [ %8, %.thread.i ], [ %16, %17 ], [ %16, %13 ]
  %.not41.i = icmp eq ptr %19, null
  br i1 %.not41.i, label %24, label %20

20:                                               ; preds = %18
  %21 = tail call ptr @dlsym(ptr noundef nonnull %19, ptr noundef nonnull @.str.20) #29
  %.not42.i = icmp eq ptr %21, null
  br i1 %.not42.i, label %26, label %22

22:                                               ; preds = %20
  %23 = tail call ptr %21(ptr noundef %0, ptr noundef %1) #29
  %.not43.i = icmp eq ptr %23, null
  br i1 %.not43.i, label %26, label %js_module_loader_so.exit

24:                                               ; preds = %18
  %25 = tail call { i64, i64 } (ptr, ptr, ...) @JS_ThrowReferenceError(ptr noundef %0, ptr noundef nonnull @.str.19, ptr noundef %1) #29
  br label %js_module_loader_so.exit

26:                                               ; preds = %22, %20
  %.str.22.sink.i = phi ptr [ @.str.21, %20 ], [ @.str.22, %22 ]
  %27 = tail call { i64, i64 } (ptr, ptr, ...) @JS_ThrowReferenceError(ptr noundef %0, ptr noundef nonnull %.str.22.sink.i, ptr noundef %1) #29
  %28 = tail call i32 @dlclose(ptr noundef nonnull %19) #29
  br label %js_module_loader_so.exit

29:                                               ; preds = %3
  %30 = call ptr @js_load_file(ptr noundef %0, ptr noundef nonnull %4, ptr noundef %1)
  %.not26 = icmp eq ptr %30, null
  br i1 %.not26, label %31, label %33

31:                                               ; preds = %29
  %32 = tail call { i64, i64 } (ptr, ptr, ...) @JS_ThrowReferenceError(ptr noundef %0, ptr noundef nonnull @.str.6, ptr noundef %1) #29
  br label %js_module_loader_so.exit

33:                                               ; preds = %29
  %34 = load i64, ptr %4, align 8
  %35 = tail call { i64, i64 } @JS_Eval(ptr noundef %0, ptr noundef nonnull %30, i64 noundef %34, ptr noundef %1, i32 noundef 33) #29
  %36 = extractvalue { i64, i64 } %35, 0
  %37 = extractvalue { i64, i64 } %35, 1
  tail call void @js_free(ptr noundef %0, ptr noundef nonnull %30) #29
  %38 = and i64 %37, 4294967295
  %.not31 = icmp eq i64 %38, 6
  br i1 %.not31, label %js_module_loader_so.exit, label %39

39:                                               ; preds = %33
  %40 = tail call i32 @js_module_set_import_meta(ptr noundef %0, i64 %36, i64 poison, i32 noundef 1, i32 noundef 0), !range !7
  %.sroa.02.0..sroa.02.0..cast = inttoptr i64 %36 to ptr
  %41 = trunc i64 %37 to i32
  %42 = icmp ugt i32 %41, -12
  br i1 %42, label %43, label %js_module_loader_so.exit

43:                                               ; preds = %39
  %44 = load i32, ptr %.sroa.02.0..sroa.02.0..cast, align 4
  %45 = add i32 %44, -1
  store i32 %45, ptr %.sroa.02.0..sroa.02.0..cast, align 4
  %46 = icmp slt i32 %45, 1
  br i1 %46, label %47, label %js_module_loader_so.exit

47:                                               ; preds = %43
  tail call void @__JS_FreeValue(ptr noundef %0, i64 %36, i64 %37) #29
  br label %js_module_loader_so.exit

js_module_loader_so.exit:                         ; preds = %47, %43, %39, %26, %24, %22, %9, %33, %31
  %.0 = phi ptr [ null, %31 ], [ null, %33 ], [ null, %9 ], [ null, %26 ], [ null, %24 ], [ %23, %22 ], [ %.sroa.02.0..sroa.02.0..cast, %39 ], [ %.sroa.02.0..sroa.02.0..cast, %43 ], [ %.sroa.02.0..sroa.02.0..cast, %47 ]
  ret ptr %.0
}